target datalayout = "e-m:e-p270:32:32-p271:32:32-p272:64:64-i64:64-i128:128-f80:128-n8:16:32:64-S128"
target triple = "x86_64-pc-linux-gnu"

%struct.dh_st = type { i32, i32, %struct.ffc_params_st, i32, ptr, ptr, i32, ptr, %struct.CRYPTO_REF_COUNT, %struct.crypto_ex_data_st, ptr, ptr, ptr, ptr, i64 }
%struct.ffc_params_st = type { ptr, ptr, ptr, ptr, ptr, i64, i32, i32, i32, i32, i32, ptr, ptr, i32 }
%struct.CRYPTO_REF_COUNT = type { i32 }
%struct.crypto_ex_data_st = type { ptr, ptr }

; Function Attrs: nounwind uwtable
define i32 @ossl_dh_check_priv_key(ptr noundef %0, ptr noundef %1, ptr noundef %2) #0 {
  %4 = alloca i32, align 4
  %5 = alloca ptr, align 8
  %6 = alloca ptr, align 8
  %7 = alloca ptr, align 8
  %8 = alloca i32, align 4
  %9 = alloca ptr, align 8
  %10 = alloca ptr, align 8
  %11 = alloca i32, align 4
  %12 = alloca i32, align 4
  store ptr %0, ptr %5, align 8, !tbaa !3
  store ptr %1, ptr %6, align 8, !tbaa !12
  store ptr %2, ptr %7, align 8, !tbaa !10
  call void @llvm.lifetime.start.p0(i64 4, ptr %8) #3
  store i32 0, ptr %8, align 4, !tbaa !8
  call void @llvm.lifetime.start.p0(i64 8, ptr %9) #3
  store ptr null, ptr %9, align 8, !tbaa !12
  call void @llvm.lifetime.start.p0(i64 8, ptr %10) #3
  %13 = load ptr, ptr %7, align 8, !tbaa !10
  store i32 0, ptr %13, align 4, !tbaa !8
  %14 = call ptr @BN_new()
  store ptr %14, ptr %9, align 8, !tbaa !12
  %15 = load ptr, ptr %9, align 8, !tbaa !12
  %16 = icmp eq ptr %15, null
  br i1 %16, label %17, label %18

17:                                               ; preds = %3
  store i32 0, ptr %4, align 4
  store i32 1, ptr %11, align 4
  br label %108

18:                                               ; preds = %3
  %19 = load ptr, ptr %5, align 8, !tbaa !3
  %20 = getelementptr inbounds nuw %struct.dh_st, ptr %19, i32 0, i32 2
  %21 = getelementptr inbounds nuw %struct.ffc_params_st, ptr %20, i32 0, i32 1
  %22 = load ptr, ptr %21, align 8, !tbaa !30
  %23 = icmp ne ptr %22, null
  br i1 %23, label %24, label %29

24:                                               ; preds = %18
  %25 = load ptr, ptr %5, align 8, !tbaa !3
  %26 = getelementptr inbounds nuw %struct.dh_st, ptr %25, i32 0, i32 2
  %27 = getelementptr inbounds nuw %struct.ffc_params_st, ptr %26, i32 0, i32 1
  %28 = load ptr, ptr %27, align 8, !tbaa !30
  store ptr %28, ptr %10, align 8, !tbaa !12
  br label %68

29:                                               ; preds = %18
  %30 = load ptr, ptr %5, align 8, !tbaa !3
  %31 = getelementptr inbounds nuw %struct.dh_st, ptr %30, i32 0, i32 2
  %32 = getelementptr inbounds nuw %struct.ffc_params_st, ptr %31, i32 0, i32 0
  %33 = load ptr, ptr %32, align 8, !tbaa !28
  %34 = icmp ne ptr %33, null
  br i1 %34, label %35, label %67

35:                                               ; preds = %29
  call void @llvm.lifetime.start.p0(i64 4, ptr %12) #3
  %36 = load ptr, ptr %5, align 8, !tbaa !3
  %37 = getelementptr inbounds nuw %struct.dh_st, ptr %36, i32 0, i32 3
  %38 = load i32, ptr %37, align 8, !tbaa !32
  store i32 %38, ptr %12, align 4, !tbaa !8
  %39 = load i32, ptr %12, align 4, !tbaa !8
  %40 = icmp eq i32 %39, 0
  br i1 %40, label %41, label %58

41:                                               ; preds = %35
  %42 = load ptr, ptr %5, align 8, !tbaa !3
  %43 = getelementptr inbounds nuw %struct.dh_st, ptr %42, i32 0, i32 2
  %44 = getelementptr inbounds nuw %struct.ffc_params_st, ptr %43, i32 0, i32 0
  %45 = load ptr, ptr %44, align 8, !tbaa !28
  %46 = call i32 @BN_num_bits(ptr noundef %45)
  %47 = sub nsw i32 %46, 1
  store i32 %47, ptr %12, align 4, !tbaa !8
  %48 = load ptr, ptr %6, align 8, !tbaa !12
  %49 = call i32 @BN_num_bits(ptr noundef %48)
  %50 = load i32, ptr %12, align 4, !tbaa !8
  %51 = icmp sle i32 %49, %50
  br i1 %51, label %52, label %57

52:                                               ; preds = %41
  %53 = load ptr, ptr %6, align 8, !tbaa !12
  %54 = call i32 @BN_num_bits(ptr noundef %53)
  %55 = icmp sgt i32 %54, 1
  br i1 %55, label %56, label %57

56:                                               ; preds = %52
  store i32 1, ptr %8, align 4, !tbaa !8
  br label %57

57:                                               ; preds = %56, %52, %41
  br label %65

58:                                               ; preds = %35
  %59 = load ptr, ptr %6, align 8, !tbaa !12
  %60 = call i32 @BN_num_bits(ptr noundef %59)
  %61 = load i32, ptr %12, align 4, !tbaa !8
  %62 = icmp eq i32 %60, %61
  br i1 %62, label %63, label %64

63:                                               ; preds = %58
  store i32 1, ptr %8, align 4, !tbaa !8
  br label %64

64:                                               ; preds = %63, %58
  br label %65

65:                                               ; preds = %64, %57
  store i32 2, ptr %11, align 4
  call void @llvm.lifetime.end.p0(i64 4, ptr %12) #3
  %66 = load i32, ptr %11, align 4
  switch i32 %66, label %108 [
    i32 2, label %105
  ]

67:                                               ; preds = %29
  br label %105

68:                                               ; preds = %24
  %69 = load ptr, ptr %5, align 8, !tbaa !3
  %70 = call i32 @DH_get_nid(ptr noundef %69)
  %71 = icmp ne i32 %70, 0
  br i1 %71, label %72, label %97

72:                                               ; preds = %68
  %73 = load ptr, ptr %5, align 8, !tbaa !3
  %74 = getelementptr inbounds nuw %struct.dh_st, ptr %73, i32 0, i32 3
  %75 = load i32, ptr %74, align 8, !tbaa !32
  %76 = icmp ne i32 %75, 0
  br i1 %76, label %77, label %97

77:                                               ; preds = %72
  %78 = load ptr, ptr %9, align 8, !tbaa !12
  %79 = call ptr @BN_value_one()
  %80 = load ptr, ptr %5, align 8, !tbaa !3
  %81 = getelementptr inbounds nuw %struct.dh_st, ptr %80, i32 0, i32 3
  %82 = load i32, ptr %81, align 8, !tbaa !32
  %83 = call i32 @BN_lshift(ptr noundef %78, ptr noundef %79, i32 noundef %82)
  %84 = icmp ne i32 %83, 0
  br i1 %84, label %86, label %85

85:                                               ; preds = %77
  br label %105

86:                                               ; preds = %77
  %87 = load ptr, ptr %9, align 8, !tbaa !12
  %88 = load ptr, ptr %5, align 8, !tbaa !3
  %89 = getelementptr inbounds nuw %struct.dh_st, ptr %88, i32 0, i32 2
  %90 = getelementptr inbounds nuw %struct.ffc_params_st, ptr %89, i32 0, i32 1
  %91 = load ptr, ptr %90, align 8, !tbaa !30
  %92 = call i32 @BN_cmp(ptr noundef %87, ptr noundef %91)
  %93 = icmp slt i32 %92, 0
  br i1 %93, label %94, label %96

94:                                               ; preds = %86
  %95 = load ptr, ptr %9, align 8, !tbaa !12
  store ptr %95, ptr %10, align 8, !tbaa !12
  br label %96

96:                                               ; preds = %94, %86
  br label %97

97:                                               ; preds = %96, %72, %68
  %98 = load ptr, ptr %10, align 8, !tbaa !12
  %99 = load ptr, ptr %6, align 8, !tbaa !12
  %100 = load ptr, ptr %7, align 8, !tbaa !10
  %101 = call i32 @ossl_ffc_validate_private_key(ptr noundef %98, ptr noundef %99, ptr noundef %100)
  %102 = icmp ne i32 %101, 0
  br i1 %102, label %104, label %103

103:                                              ; preds = %97
  br label %105

104:                                              ; preds = %97
  store i32 1, ptr %8, align 4, !tbaa !8
  br label %105

105:                                              ; preds = %104, %65, %103, %85, %67
  %106 = load ptr, ptr %9, align 8, !tbaa !12
  call void @BN_free(ptr noundef %106)
  %107 = load i32, ptr %8, align 4, !tbaa !8
  store i32 %107, ptr %4, align 4
  store i32 1, ptr %11, align 4
  br label %108

108:                                              ; preds = %105, %65, %17
  call void @llvm.lifetime.end.p0(i64 8, ptr %10) #3
  call void @llvm.lifetime.end.p0(i64 8, ptr %9) #3
  call void @llvm.lifetime.end.p0(i64 4, ptr %8) #3
  %109 = load i32, ptr %4, align 4
  ret i32 %109
}