; Function Attrs: nounwind uwtable
define range(i32 0, 2) i32 @ossl_dh_check_priv_key(ptr noundef %0, ptr noundef %1, ptr noundef initializes((0, 4)) %2) local_unnamed_addr #0 {
  store i32 0, ptr %2, align 4, !tbaa !3
  %4 = tail call ptr @BN_new() #3
  %5 = icmp eq ptr %4, null
  br i1 %5, label %41, label %6

6:                                                ; preds = %3
  %7 = getelementptr inbounds nuw i8, ptr %0, i64 16
  %8 = load ptr, ptr %7, align 8, !tbaa !23
  %.not = icmp eq ptr %8, null
  br i1 %.not, label %11, label %9

9:                                                ; preds = %6
  %10 = tail call i32 @DH_get_nid(ptr noundef nonnull %0) #3
  %.not34 = icmp eq i32 %10, 0
  br i1 %.not34, label %38, label %27

11:                                               ; preds = %6
  %12 = getelementptr inbounds nuw i8, ptr %0, i64 8
  %13 = load ptr, ptr %12, align 8, !tbaa !21
  %.not32 = icmp eq ptr %13, null
  br i1 %.not32, label %40, label %14

14:                                               ; preds = %11
  %15 = getelementptr inbounds nuw i8, ptr %0, i64 104
  %16 = load i32, ptr %15, align 8, !tbaa !25
  %17 = icmp eq i32 %16, 0
  br i1 %17, label %18, label %24

18:                                               ; preds = %14
  %19 = tail call i32 @BN_num_bits(ptr noundef nonnull %13) #3
  %20 = tail call i32 @BN_num_bits(ptr noundef %1) #3
  %.not33.not = icmp slt i32 %20, %19
  br i1 %.not33.not, label %21, label %40

21:                                               ; preds = %18
  %22 = tail call i32 @BN_num_bits(ptr noundef %1) #3
  %23 = icmp sgt i32 %22, 1
  br label %40

24:                                               ; preds = %14
  %25 = tail call i32 @BN_num_bits(ptr noundef %1) #3
  %26 = icmp eq i32 %25, %16
  br label %40

27:                                               ; preds = %9
  %28 = getelementptr inbounds nuw i8, ptr %0, i64 104
  %29 = load i32, ptr %28, align 8, !tbaa !25
  %.not35 = icmp eq i32 %29, 0
  br i1 %.not35, label %38, label %30

30:                                               ; preds = %27
  %31 = tail call ptr @BN_value_one() #3
  %32 = load i32, ptr %28, align 8, !tbaa !25
  %33 = tail call i32 @BN_lshift(ptr noundef nonnull %4, ptr noundef %31, i32 noundef %32) #3
  %.not36 = icmp eq i32 %33, 0
  br i1 %.not36, label %40, label %34

34:                                               ; preds = %30
  %35 = load ptr, ptr %7, align 8, !tbaa !23
  %36 = tail call i32 @BN_cmp(ptr noundef nonnull %4, ptr noundef %35) #3
  %37 = icmp slt i32 %36, 0
  %spec.select39 = select i1 %37, ptr %4, ptr %8
  br label %38

38:                                               ; preds = %34, %27, %9
  %.0 = phi ptr [ %8, %27 ], [ %8, %9 ], [ %spec.select39, %34 ]
  %39 = tail call i32 @ossl_ffc_validate_private_key(ptr noundef nonnull %.0, ptr noundef %1, ptr noundef nonnull %2) #3
  %.not37 = icmp ne i32 %39, 0
  br label %40

40:                                               ; preds = %38, %24, %21, %18, %30, %11
  %.1.shrunk = phi i1 [ false, %30 ], [ false, %11 ], [ false, %18 ], [ %23, %21 ], [ %26, %24 ], [ %.not37, %38 ]
  %.1 = zext i1 %.1.shrunk to i32
  tail call void @BN_free(ptr noundef nonnull %4) #3
  br label %41

41:                                               ; preds = %3, %40
  %.027 = phi i32 [ %.1, %40 ], [ 0, %3 ]
  ret i32 %.027
}